target datalayout = "e-m:e-p270:32:32-p271:32:32-p272:64:64-i64:64-i128:128-f80:128-n8:16:32:64-S128"
target triple = "x86_64-pc-linux-gnu"

%struct.Csw_Man_t_ = type { ptr, ptr, ptr, ptr, ptr, ptr, i32, i32, i32, i32, i32, i32, ptr, [4 x ptr], i32, i32, i32, i32, i32, i64, i64, i64, i64 }
%struct.Aig_Man_t_ = type { ptr, ptr, ptr, ptr, ptr, ptr, ptr, %struct.Aig_Obj_t_, i32, i32, i32, i32, i32, i32, [7 x i32], i32, ptr, i32, ptr, i32, ptr, i32, i32, i32, ptr, i32, i32, i32, i32, i32, ptr, ptr, i32, ptr, ptr, i32, ptr, ptr, i32, i32, i32, ptr, ptr, ptr, ptr, ptr, ptr, ptr, ptr, ptr, ptr, ptr, ptr, ptr, ptr, i32, ptr, ptr, ptr, ptr, i32, i64, i64, i64, ptr, ptr }
%struct.Aig_Obj_t_ = type { %union.anon, ptr, ptr, i64, i32, i32, %union.anon.0 }
%union.anon = type { ptr }
%union.anon.0 = type { ptr }

@.str = private unnamed_addr constant [61 x i8] c"Beg = %7d.  End = %7d.  (%6.2f %%)  Try = %7d.  Cuts = %8d.\0A\00", align 1
@.str.1 = private unnamed_addr constant [62 x i8] c"Triv0 = %6d.  Triv1 = %6d.  Triv2 = %6d.  Cut-replace = %6d.\0A\00", align 1
@.str.2 = private unnamed_addr constant [5 x i8] c"%s =\00", align 1
@.str.3 = private unnamed_addr constant [9 x i8] c"Cuts    \00", align 1
@.str.4 = private unnamed_addr constant [22 x i8] c"%9.2f sec (%6.2f %%)\0A\00", align 1
@.str.5 = private unnamed_addr constant [9 x i8] c"Hashing \00", align 1
@.str.6 = private unnamed_addr constant [9 x i8] c"Other   \00", align 1
@.str.7 = private unnamed_addr constant [9 x i8] c"TOTAL   \00", align 1

; Function Attrs: inlinehint nounwind uwtable
define internal i32 @Aig_ManNodeNum(ptr noundef %0) #5 {
  %2 = alloca ptr, align 8
  store ptr %0, ptr %2, align 8, !tbaa !3
  %3 = load ptr, ptr %2, align 8, !tbaa !3
  %4 = getelementptr inbounds nuw %struct.Aig_Man_t_, ptr %3, i32 0, i32 14
  %5 = getelementptr inbounds [7 x i32], ptr %4, i64 0, i64 5
  %6 = load i32, ptr %5, align 4, !tbaa !8
  %7 = load ptr, ptr %2, align 8, !tbaa !3
  %8 = getelementptr inbounds nuw %struct.Aig_Man_t_, ptr %7, i32 0, i32 14
  %9 = getelementptr inbounds [7 x i32], ptr %8, i64 0, i64 6
  %10 = load i32, ptr %9, align 8, !tbaa !8
  %11 = add nsw i32 %6, %10
  ret i32 %11
}

; Function Attrs: nounwind uwtable
define void @Csw_ManStop(ptr noundef %0) #0 {
  %2 = alloca ptr, align 8
  %3 = alloca i32, align 4
  %4 = alloca i32, align 4
  store ptr %0, ptr %2, align 8, !tbaa !10
  %5 = load ptr, ptr %2, align 8, !tbaa !10
  %6 = getelementptr inbounds nuw %struct.Csw_Man_t_, ptr %5, i32 0, i32 9
  %7 = load i32, ptr %6, align 4, !tbaa !20
  %8 = icmp ne i32 %7, 0
  br i1 %8, label %9, label %147

9:                                                ; preds = %1
  call void @llvm.lifetime.start.p0(i64 4, ptr %3) #9
  %10 = load ptr, ptr %2, align 8, !tbaa !10
  %11 = getelementptr inbounds nuw %struct.Csw_Man_t_, ptr %10, i32 0, i32 0
  %12 = load ptr, ptr %11, align 8, !tbaa !21
  %13 = call i32 @Aig_ManNodeNum(ptr noundef %12)
  store i32 %13, ptr %3, align 4, !tbaa !8
  call void @llvm.lifetime.start.p0(i64 4, ptr %4) #9
  %14 = load ptr, ptr %2, align 8, !tbaa !10
  %15 = getelementptr inbounds nuw %struct.Csw_Man_t_, ptr %14, i32 0, i32 1
  %16 = load ptr, ptr %15, align 8, !tbaa !22
  %17 = call i32 @Aig_ManNodeNum(ptr noundef %16)
  store i32 %17, ptr %4, align 4, !tbaa !8
  %18 = load i32, ptr %3, align 4, !tbaa !8
  %19 = load i32, ptr %4, align 4, !tbaa !8
  %20 = load i32, ptr %3, align 4, !tbaa !8
  %21 = load i32, ptr %4, align 4, !tbaa !8
  %22 = sub nsw i32 %20, %21
  %23 = sitofp i32 %22 to double
  %24 = fmul double 1.000000e+02, %23
  %25 = load i32, ptr %3, align 4, !tbaa !8
  %26 = sitofp i32 %25 to double
  %27 = fdiv double %24, %26
  %28 = load ptr, ptr %2, align 8, !tbaa !10
  %29 = getelementptr inbounds nuw %struct.Csw_Man_t_, ptr %28, i32 0, i32 18
  %30 = load i32, ptr %29, align 8, !tbaa !54
  %31 = load ptr, ptr %2, align 8, !tbaa !10
  %32 = call i32 @Csw_TableCountCuts(ptr noundef %31)
  %33 = call i32 (ptr, ...) @printf(ptr noundef @.str, i32 noundef %18, i32 noundef %19, double noundef %27, i32 noundef %30, i32 noundef %32)
  %34 = load ptr, ptr %2, align 8, !tbaa !10
  %35 = getelementptr inbounds nuw %struct.Csw_Man_t_, ptr %34, i32 0, i32 14
  %36 = load i32, ptr %35, align 8, !tbaa !55
  %37 = load ptr, ptr %2, align 8, !tbaa !10
  %38 = getelementptr inbounds nuw %struct.Csw_Man_t_, ptr %37, i32 0, i32 15
  %39 = load i32, ptr %38, align 4, !tbaa !56
  %40 = load ptr, ptr %2, align 8, !tbaa !10
  %41 = getelementptr inbounds nuw %struct.Csw_Man_t_, ptr %40, i32 0, i32 16
  %42 = load i32, ptr %41, align 8, !tbaa !57
  %43 = load ptr, ptr %2, align 8, !tbaa !10
  %44 = getelementptr inbounds nuw %struct.Csw_Man_t_, ptr %43, i32 0, i32 17
  %45 = load i32, ptr %44, align 4, !tbaa !58
  %46 = call i32 (ptr, ...) @printf(ptr noundef @.str.1, i32 noundef %36, i32 noundef %39, i32 noundef %42, i32 noundef %45)
  call void (i32, ptr, ...) @Abc_Print(i32 noundef 1, ptr noundef @.str.2, ptr noundef @.str.3)
  %47 = load ptr, ptr %2, align 8, !tbaa !10
  %48 = getelementptr inbounds nuw %struct.Csw_Man_t_, ptr %47, i32 0, i32 19
  %49 = load i64, ptr %48, align 8, !tbaa !59
  %50 = sitofp i64 %49 to double
  %51 = fmul double 1.000000e+00, %50
  %52 = fdiv double %51, 1.000000e+06
  %53 = load ptr, ptr %2, align 8, !tbaa !10
  %54 = getelementptr inbounds nuw %struct.Csw_Man_t_, ptr %53, i32 0, i32 22
  %55 = load i64, ptr %54, align 8, !tbaa !60
  %56 = sitofp i64 %55 to double
  %57 = fcmp une double %56, 0.000000e+00
  br i1 %57, label %58, label %69

58:                                               ; preds = %9
  %59 = load ptr, ptr %2, align 8, !tbaa !10
  %60 = getelementptr inbounds nuw %struct.Csw_Man_t_, ptr %59, i32 0, i32 19
  %61 = load i64, ptr %60, align 8, !tbaa !59
  %62 = sitofp i64 %61 to double
  %63 = fmul double 1.000000e+02, %62
  %64 = load ptr, ptr %2, align 8, !tbaa !10
  %65 = getelementptr inbounds nuw %struct.Csw_Man_t_, ptr %64, i32 0, i32 22
  %66 = load i64, ptr %65, align 8, !tbaa !60
  %67 = sitofp i64 %66 to double
  %68 = fdiv double %63, %67
  br label %70

69:                                               ; preds = %9
  br label %70

70:                                               ; preds = %69, %58
  %71 = phi double [ %68, %58 ], [ 0.000000e+00, %69 ]
  call void (i32, ptr, ...) @Abc_Print(i32 noundef 1, ptr noundef @.str.4, double noundef %52, double noundef %71)
  call void (i32, ptr, ...) @Abc_Print(i32 noundef 1, ptr noundef @.str.2, ptr noundef @.str.5)
  %72 = load ptr, ptr %2, align 8, !tbaa !10
  %73 = getelementptr inbounds nuw %struct.Csw_Man_t_, ptr %72, i32 0, i32 20
  %74 = load i64, ptr %73, align 8, !tbaa !61
  %75 = sitofp i64 %74 to double
  %76 = fmul double 1.000000e+00, %75
  %77 = fdiv double %76, 1.000000e+06
  %78 = load ptr, ptr %2, align 8, !tbaa !10
  %79 = getelementptr inbounds nuw %struct.Csw_Man_t_, ptr %78, i32 0, i32 22
  %80 = load i64, ptr %79, align 8, !tbaa !60
  %81 = sitofp i64 %80 to double
  %82 = fcmp une double %81, 0.000000e+00
  br i1 %82, label %83, label %94

83:                                               ; preds = %70
  %84 = load ptr, ptr %2, align 8, !tbaa !10
  %85 = getelementptr inbounds nuw %struct.Csw_Man_t_, ptr %84, i32 0, i32 20
  %86 = load i64, ptr %85, align 8, !tbaa !61
  %87 = sitofp i64 %86 to double
  %88 = fmul double 1.000000e+02, %87
  %89 = load ptr, ptr %2, align 8, !tbaa !10
  %90 = getelementptr inbounds nuw %struct.Csw_Man_t_, ptr %89, i32 0, i32 22
  %91 = load i64, ptr %90, align 8, !tbaa !60
  %92 = sitofp i64 %91 to double
  %93 = fdiv double %88, %92
  br label %95

94:                                               ; preds = %70
  br label %95

95:                                               ; preds = %94, %83
  %96 = phi double [ %93, %83 ], [ 0.000000e+00, %94 ]
  call void (i32, ptr, ...) @Abc_Print(i32 noundef 1, ptr noundef @.str.4, double noundef %77, double noundef %96)
  call void (i32, ptr, ...) @Abc_Print(i32 noundef 1, ptr noundef @.str.2, ptr noundef @.str.6)
  %97 = load ptr, ptr %2, align 8, !tbaa !10
  %98 = getelementptr inbounds nuw %struct.Csw_Man_t_, ptr %97, i32 0, i32 21
  %99 = load i64, ptr %98, align 8, !tbaa !62
  %100 = sitofp i64 %99 to double
  %101 = fmul double 1.000000e+00, %100
  %102 = fdiv double %101, 1.000000e+06
  %103 = load ptr, ptr %2, align 8, !tbaa !10
  %104 = getelementptr inbounds nuw %struct.Csw_Man_t_, ptr %103, i32 0, i32 22
  %105 = load i64, ptr %104, align 8, !tbaa !60
  %106 = sitofp i64 %105 to double
  %107 = fcmp une double %106, 0.000000e+00
  br i1 %107, label %108, label %119

108:                                              ; preds = %95
  %109 = load ptr, ptr %2, align 8, !tbaa !10
  %110 = getelementptr inbounds nuw %struct.Csw_Man_t_, ptr %109, i32 0, i32 21
  %111 = load i64, ptr %110, align 8, !tbaa !62
  %112 = sitofp i64 %111 to double
  %113 = fmul double 1.000000e+02, %112
  %114 = load ptr, ptr %2, align 8, !tbaa !10
  %115 = getelementptr inbounds nuw %struct.Csw_Man_t_, ptr %114, i32 0, i32 22
  %116 = load i64, ptr %115, align 8, !tbaa !60
  %117 = sitofp i64 %116 to double
  %118 = fdiv double %113, %117
  br label %120

119:                                              ; preds = %95
  br label %120

120:                                              ; preds = %119, %108
  %121 = phi double [ %118, %108 ], [ 0.000000e+00, %119 ]
  call void (i32, ptr, ...) @Abc_Print(i32 noundef 1, ptr noundef @.str.4, double noundef %102, double noundef %121)
  call void (i32, ptr, ...) @Abc_Print(i32 noundef 1, ptr noundef @.str.2, ptr noundef @.str.7)
  %122 = load ptr, ptr %2, align 8, !tbaa !10
  %123 = getelementptr inbounds nuw %struct.Csw_Man_t_, ptr %122, i32 0, i32 22
  %124 = load i64, ptr %123, align 8, !tbaa !60
  %125 = sitofp i64 %124 to double
  %126 = fmul double 1.000000e+00, %125
  %127 = fdiv double %126, 1.000000e+06
  %128 = load ptr, ptr %2, align 8, !tbaa !10
  %129 = getelementptr inbounds nuw %struct.Csw_Man_t_, ptr %128, i32 0, i32 22
  %130 = load i64, ptr %129, align 8, !tbaa !60
  %131 = sitofp i64 %130 to double
  %132 = fcmp une double %131, 0.000000e+00
  br i1 %132, label %133, label %144

133:                                              ; preds = %120
  %134 = load ptr, ptr %2, align 8, !tbaa !10
  %135 = getelementptr inbounds nuw %struct.Csw_Man_t_, ptr %134, i32 0, i32 22
  %136 = load i64, ptr %135, align 8, !tbaa !60
  %137 = sitofp i64 %136 to double
  %138 = fmul double 1.000000e+02, %137
  %139 = load ptr, ptr %2, align 8, !tbaa !10
  %140 = getelementptr inbounds nuw %struct.Csw_Man_t_, ptr %139, i32 0, i32 22
  %141 = load i64, ptr %140, align 8, !tbaa !60
  %142 = sitofp i64 %141 to double
  %143 = fdiv double %138, %142
  br label %145

144:                                              ; preds = %120
  br label %145

145:                                              ; preds = %144, %133
  %146 = phi double [ %143, %133 ], [ 0.000000e+00, %144 ]
  call void (i32, ptr, ...) @Abc_Print(i32 noundef 1, ptr noundef @.str.4, double noundef %127, double noundef %146)
  call void @llvm.lifetime.end.p0(i64 4, ptr %4) #9
  call void @llvm.lifetime.end.p0(i64 4, ptr %3) #9
  br label %147

147:                                              ; preds = %145, %1
  %148 = load ptr, ptr %2, align 8, !tbaa !10
  %149 = getelementptr inbounds nuw %struct.Csw_Man_t_, ptr %148, i32 0, i32 13
  %150 = getelementptr inbounds [4 x ptr], ptr %149, i64 0, i64 0
  %151 = load ptr, ptr %150, align 8, !tbaa !43
  %152 = icmp ne ptr %151, null
  br i1 %152, label %153, label %161

153:                                              ; preds = %147
  %154 = load ptr, ptr %2, align 8, !tbaa !10
  %155 = getelementptr inbounds nuw %struct.Csw_Man_t_, ptr %154, i32 0, i32 13
  %156 = getelementptr inbounds [4 x ptr], ptr %155, i64 0, i64 0
  %157 = load ptr, ptr %156, align 8, !tbaa !43
  call void @free(ptr noundef %157) #9
  %158 = load ptr, ptr %2, align 8, !tbaa !10
  %159 = getelementptr inbounds nuw %struct.Csw_Man_t_, ptr %158, i32 0, i32 13
  %160 = getelementptr inbounds [4 x ptr], ptr %159, i64 0, i64 0
  store ptr null, ptr %160, align 8, !tbaa !43
  br label %162

161:                                              ; preds = %147
  br label %162

162:                                              ; preds = %161, %153
  %163 = load ptr, ptr %2, align 8, !tbaa !10
  %164 = getelementptr inbounds nuw %struct.Csw_Man_t_, ptr %163, i32 0, i32 12
  %165 = load ptr, ptr %164, align 8, !tbaa !28
  call void @Aig_MmFixedStop(ptr noundef %165, i32 noundef 0)
  %166 = load ptr, ptr %2, align 8, !tbaa !10
  %167 = getelementptr inbounds nuw %struct.Csw_Man_t_, ptr %166, i32 0, i32 4
  %168 = load ptr, ptr %167, align 8, !tbaa !23
  %169 = icmp ne ptr %168, null
  br i1 %169, label %170, label %176

170:                                              ; preds = %162
  %171 = load ptr, ptr %2, align 8, !tbaa !10
  %172 = getelementptr inbounds nuw %struct.Csw_Man_t_, ptr %171, i32 0, i32 4
  %173 = load ptr, ptr %172, align 8, !tbaa !23
  call void @free(ptr noundef %173) #9
  %174 = load ptr, ptr %2, align 8, !tbaa !10
  %175 = getelementptr inbounds nuw %struct.Csw_Man_t_, ptr %174, i32 0, i32 4
  store ptr null, ptr %175, align 8, !tbaa !23
  br label %177

176:                                              ; preds = %162
  br label %177

177:                                              ; preds = %176, %170
  %178 = load ptr, ptr %2, align 8, !tbaa !10
  %179 = getelementptr inbounds nuw %struct.Csw_Man_t_, ptr %178, i32 0, i32 2
  %180 = load ptr, ptr %179, align 8, !tbaa !24
  %181 = icmp ne ptr %180, null
  br i1 %181, label %182, label %188

182:                                              ; preds = %177
  %183 = load ptr, ptr %2, align 8, !tbaa !10
  %184 = getelementptr inbounds nuw %struct.Csw_Man_t_, ptr %183, i32 0, i32 2
  %185 = load ptr, ptr %184, align 8, !tbaa !24
  call void @free(ptr noundef %185) #9
  %186 = load ptr, ptr %2, align 8, !tbaa !10
  %187 = getelementptr inbounds nuw %struct.Csw_Man_t_, ptr %186, i32 0, i32 2
  store ptr null, ptr %187, align 8, !tbaa !24
  br label %189

188:                                              ; preds = %177
  br label %189

189:                                              ; preds = %188, %182
  %190 = load ptr, ptr %2, align 8, !tbaa !10
  %191 = getelementptr inbounds nuw %struct.Csw_Man_t_, ptr %190, i32 0, i32 3
  %192 = load ptr, ptr %191, align 8, !tbaa !25
  %193 = icmp ne ptr %192, null
  br i1 %193, label %194, label %200

194:                                              ; preds = %189
  %195 = load ptr, ptr %2, align 8, !tbaa !10
  %196 = getelementptr inbounds nuw %struct.Csw_Man_t_, ptr %195, i32 0, i32 3
  %197 = load ptr, ptr %196, align 8, !tbaa !25
  call void @free(ptr noundef %197) #9
  %198 = load ptr, ptr %2, align 8, !tbaa !10
  %199 = getelementptr inbounds nuw %struct.Csw_Man_t_, ptr %198, i32 0, i32 3
  store ptr null, ptr %199, align 8, !tbaa !25
  br label %201

200:                                              ; preds = %189
  br label %201

201:                                              ; preds = %200, %194
  %202 = load ptr, ptr %2, align 8, !tbaa !10
  %203 = getelementptr inbounds nuw %struct.Csw_Man_t_, ptr %202, i32 0, i32 5
  %204 = load ptr, ptr %203, align 8, !tbaa !30
  %205 = icmp ne ptr %204, null
  br i1 %205, label %206, label %212

206:                                              ; preds = %201
  %207 = load ptr, ptr %2, align 8, !tbaa !10
  %208 = getelementptr inbounds nuw %struct.Csw_Man_t_, ptr %207, i32 0, i32 5
  %209 = load ptr, ptr %208, align 8, !tbaa !30
  call void @free(ptr noundef %209) #9
  %210 = load ptr, ptr %2, align 8, !tbaa !10
  %211 = getelementptr inbounds nuw %struct.Csw_Man_t_, ptr %210, i32 0, i32 5
  store ptr null, ptr %211, align 8, !tbaa !30
  br label %213

212:                                              ; preds = %201
  br label %213

213:                                              ; preds = %212, %206
  %214 = load ptr, ptr %2, align 8, !tbaa !10
  %215 = icmp ne ptr %214, null
  br i1 %215, label %216, label %218

216:                                              ; preds = %213
  %217 = load ptr, ptr %2, align 8, !tbaa !10
  call void @free(ptr noundef %217) #9
  store ptr null, ptr %2, align 8, !tbaa !10
  br label %219

218:                                              ; preds = %213
  br label %219

219:                                              ; preds = %218, %216
  ret void
}