; Function Attrs: nounwind uwtable
define void @Csw_ManStop(ptr noundef %0) local_unnamed_addr #0 {
  %2 = getelementptr inbounds nuw i8, ptr %0, i64 60
  %3 = load i32, ptr %2, align 4, !tbaa !16
  %.not = icmp eq i32 %3, 0
  br i1 %.not, label %66, label %4

4:                                                ; preds = %1
  %5 = load ptr, ptr %0, align 8, !tbaa !17
  %6 = getelementptr i8, ptr %5, i64 148
  %.val67 = load i32, ptr %6, align 4, !tbaa !36
  %7 = getelementptr i8, ptr %5, i64 152
  %.val68 = load i32, ptr %7, align 8, !tbaa !36
  %8 = add nsw i32 %.val68, %.val67
  %9 = getelementptr inbounds nuw i8, ptr %0, i64 8
  %10 = load ptr, ptr %9, align 8, !tbaa !18
  %11 = getelementptr i8, ptr %10, i64 148
  %.val = load i32, ptr %11, align 4, !tbaa !36
  %12 = getelementptr i8, ptr %10, i64 152
  %.val66 = load i32, ptr %12, align 8, !tbaa !36
  %13 = add nsw i32 %.val66, %.val
  %14 = sub nsw i32 %8, %13
  %15 = sitofp i32 %14 to double
  %16 = fmul double %15, 1.000000e+02
  %17 = sitofp i32 %8 to double
  %18 = fdiv double %16, %17
  %19 = getelementptr inbounds nuw i8, ptr %0, i64 128
  %20 = load i32, ptr %19, align 8, !tbaa !50
  %21 = tail call i32 @Csw_TableCountCuts(ptr noundef nonnull %0) #10
  %22 = tail call i32 (ptr, ...) @printf(ptr noundef nonnull dereferenceable(1) @.str, i32 noundef %8, i32 noundef %13, double noundef %18, i32 noundef %20, i32 noundef %21)
  %23 = getelementptr inbounds nuw i8, ptr %0, i64 112
  %24 = load i32, ptr %23, align 8, !tbaa !51
  %25 = getelementptr inbounds nuw i8, ptr %0, i64 116
  %26 = load i32, ptr %25, align 4, !tbaa !52
  %27 = getelementptr inbounds nuw i8, ptr %0, i64 120
  %28 = load i32, ptr %27, align 8, !tbaa !53
  %29 = getelementptr inbounds nuw i8, ptr %0, i64 124
  %30 = load i32, ptr %29, align 4, !tbaa !54
  %31 = tail call i32 (ptr, ...) @printf(ptr noundef nonnull dereferenceable(1) @.str.1, i32 noundef %24, i32 noundef %26, i32 noundef %28, i32 noundef %30)
  tail call void (i32, ptr, ...) @Abc_Print(i32 poison, ptr noundef nonnull @.str.2, ptr noundef nonnull @.str.3)
  %32 = getelementptr inbounds nuw i8, ptr %0, i64 136
  %33 = load i64, ptr %32, align 8, !tbaa !55
  %34 = sitofp i64 %33 to double
  %35 = fdiv double %34, 1.000000e+06
  %36 = getelementptr inbounds nuw i8, ptr %0, i64 160
  %37 = load i64, ptr %36, align 8, !tbaa !56
  %.not56 = icmp eq i64 %37, 0
  %38 = sitofp i64 %37 to double
  %39 = fmul double %34, 1.000000e+02
  %40 = fdiv double %39, %38
  %41 = select i1 %.not56, double 0.000000e+00, double %40
  tail call void (i32, ptr, ...) @Abc_Print(i32 poison, ptr noundef nonnull @.str.4, double noundef %35, double noundef %41)
  tail call void (i32, ptr, ...) @Abc_Print(i32 poison, ptr noundef nonnull @.str.2, ptr noundef nonnull @.str.5)
  %42 = getelementptr inbounds nuw i8, ptr %0, i64 144
  %43 = load i64, ptr %42, align 8, !tbaa !57
  %44 = sitofp i64 %43 to double
  %45 = fdiv double %44, 1.000000e+06
  %46 = load i64, ptr %36, align 8, !tbaa !56
  %.not57 = icmp eq i64 %46, 0
  %47 = sitofp i64 %46 to double
  %48 = fmul double %44, 1.000000e+02
  %49 = fdiv double %48, %47
  %50 = select i1 %.not57, double 0.000000e+00, double %49
  tail call void (i32, ptr, ...) @Abc_Print(i32 poison, ptr noundef nonnull @.str.4, double noundef %45, double noundef %50)
  tail call void (i32, ptr, ...) @Abc_Print(i32 poison, ptr noundef nonnull @.str.2, ptr noundef nonnull @.str.6)
  %51 = getelementptr inbounds nuw i8, ptr %0, i64 152
  %52 = load i64, ptr %51, align 8, !tbaa !58
  %53 = sitofp i64 %52 to double
  %54 = fdiv double %53, 1.000000e+06
  %55 = load i64, ptr %36, align 8, !tbaa !56
  %.not58 = icmp eq i64 %55, 0
  %56 = sitofp i64 %55 to double
  %57 = fmul double %53, 1.000000e+02
  %58 = fdiv double %57, %56
  %59 = select i1 %.not58, double 0.000000e+00, double %58
  tail call void (i32, ptr, ...) @Abc_Print(i32 poison, ptr noundef nonnull @.str.4, double noundef %54, double noundef %59)
  tail call void (i32, ptr, ...) @Abc_Print(i32 poison, ptr noundef nonnull @.str.2, ptr noundef nonnull @.str.7)
  %60 = load i64, ptr %36, align 8, !tbaa !56
  %61 = sitofp i64 %60 to double
  %62 = fdiv double %61, 1.000000e+06
  %.not59 = icmp eq i64 %60, 0
  %63 = fmul double %61, 1.000000e+02
  %64 = fdiv double %63, %61
  %65 = select i1 %.not59, double 0.000000e+00, double %64
  tail call void (i32, ptr, ...) @Abc_Print(i32 poison, ptr noundef nonnull @.str.4, double noundef %62, double noundef %65)
  br label %66

66:                                               ; preds = %4, %1
  %67 = getelementptr inbounds nuw i8, ptr %0, i64 80
  %68 = load ptr, ptr %67, align 8, !tbaa !49
  %.not60 = icmp eq ptr %68, null
  br i1 %.not60, label %70, label %69

69:                                               ; preds = %66
  tail call void @free(ptr noundef nonnull %68) #10
  store ptr null, ptr %67, align 8, !tbaa !49
  br label %70

70:                                               ; preds = %66, %69
  %71 = getelementptr inbounds nuw i8, ptr %0, i64 72
  %72 = load ptr, ptr %71, align 8, !tbaa !35
  tail call void @Aig_MmFixedStop(ptr noundef %72, i32 noundef 0) #10
  %73 = getelementptr inbounds nuw i8, ptr %0, i64 32
  %74 = load ptr, ptr %73, align 8, !tbaa !30
  %.not61 = icmp eq ptr %74, null
  br i1 %.not61, label %76, label %75

75:                                               ; preds = %70
  tail call void @free(ptr noundef nonnull %74) #10
  store ptr null, ptr %73, align 8, !tbaa !30
  br label %76

76:                                               ; preds = %70, %75
  %77 = getelementptr inbounds nuw i8, ptr %0, i64 16
  %78 = load ptr, ptr %77, align 8, !tbaa !31
  %.not62 = icmp eq ptr %78, null
  br i1 %.not62, label %80, label %79

79:                                               ; preds = %76
  tail call void @free(ptr noundef nonnull %78) #10
  store ptr null, ptr %77, align 8, !tbaa !31
  br label %80

80:                                               ; preds = %76, %79
  %81 = getelementptr inbounds nuw i8, ptr %0, i64 24
  %82 = load ptr, ptr %81, align 8, !tbaa !32
  %.not63 = icmp eq ptr %82, null
  br i1 %.not63, label %84, label %83

83:                                               ; preds = %80
  tail call void @free(ptr noundef nonnull %82) #10
  store ptr null, ptr %81, align 8, !tbaa !32
  br label %84

84:                                               ; preds = %80, %83
  %85 = getelementptr inbounds nuw i8, ptr %0, i64 40
  %86 = load ptr, ptr %85, align 8, !tbaa !41
  %.not64 = icmp eq ptr %86, null
  br i1 %.not64, label %88, label %87

87:                                               ; preds = %84
  tail call void @free(ptr noundef nonnull %86) #10
  br label %88

88:                                               ; preds = %84, %87
  tail call void @free(ptr noundef nonnull %0) #10
  ret void
}